; Function Attrs: mustprogress uwtable
define noundef signext i8 @_ZNK6icu_7511PluralRules9isKeywordERKNS_13UnicodeStringE(ptr nocapture noundef nonnull readonly align 8 dereferenceable(28) %this, ptr noundef nonnull align 8 dereferenceable(64) %keyword) local_unnamed_addr #1 align 2 personality ptr @__gxx_personality_v0 {
entry:
  %fUnion.i.i.i = getelementptr inbounds i8, ptr %keyword, i64 8
  %0 = load i16, ptr %fUnion.i.i.i, align 8
  %cmp.i.i.i = icmp slt i16 %0, 0
  %1 = ashr i16 %0, 5
  %shr.i.i.i = sext i16 %1 to i32
  %fLength.i.i = getelementptr inbounds i8, ptr %keyword, i64 12
  %2 = load i32, ptr %fLength.i.i, align 4
  %cond.i.i = select i1 %cmp.i.i.i, i32 %2, i32 %shr.i.i.i
  %call3.i2 = invoke noundef signext i8 @_ZNK6icu_7513UnicodeString9doCompareEiiPKDsii(ptr noundef nonnull align 8 dereferenceable(64) %keyword, i32 noundef 0, i32 noundef %cond.i.i, ptr noundef nonnull @_ZN6icu_75L20PLURAL_KEYWORD_OTHERE, i32 noundef 0, i32 noundef 5)
          to label %invoke.cont unwind label %lpad

invoke.cont:                                      ; preds = %entry
  %cmp = icmp eq i8 %call3.i2, 0
  tail call void asm sideeffect "", "rm,~{memory},~{dirflag},~{fpsr},~{flags}"(ptr nonnull @_ZN6icu_75L20PLURAL_KEYWORD_OTHERE) #25, !srcloc !7
  br i1 %cmp, label %return, label %if.end

lpad:                                             ; preds = %entry
  %3 = landingpad { ptr, i32 }
          cleanup
  tail call void asm sideeffect "", "rm,~{memory},~{dirflag},~{fpsr},~{flags}"(ptr nonnull @_ZN6icu_75L20PLURAL_KEYWORD_OTHERE) #25, !srcloc !7
  resume { ptr, i32 } %3

if.end:                                           ; preds = %invoke.cont
  %mRules.i = getelementptr inbounds i8, ptr %this, i64 8
  %rc.05.i = load ptr, ptr %mRules.i, align 8
  %cmp.not6.i = icmp eq ptr %rc.05.i, null
  br i1 %cmp.not6.i, label %return, label %for.body.i

for.body.i:                                       ; preds = %if.end, %for.inc.i
  %rc.07.i = phi ptr [ %rc.0.i, %for.inc.i ], [ %rc.05.i, %if.end ]
  %fKeyword.i = getelementptr inbounds i8, ptr %rc.07.i, i64 8
  %fUnion.i.i.i3 = getelementptr inbounds i8, ptr %rc.07.i, i64 16
  %4 = load i16, ptr %fUnion.i.i.i3, align 8
  %conv2.i14.i.i = and i16 %4, 1
  %tobool.not.i.i = icmp eq i16 %conv2.i14.i.i, 0
  br i1 %tobool.not.i.i, label %if.else.i.i, label %if.then.i.i

if.then.i.i:                                      ; preds = %for.body.i
  %5 = load i16, ptr %fUnion.i.i.i, align 8
  %conv2.i615.i.i = and i16 %5, 1
  %tobool3.i.not.i = icmp eq i16 %conv2.i615.i.i, 0
  br i1 %tobool3.i.not.i, label %for.inc.i, label %return

if.else.i.i:                                      ; preds = %for.body.i
  %cmp.i.i.i.i = icmp slt i16 %4, 0
  %6 = ashr i16 %4, 5
  %shr.i.i.i.i = sext i16 %6 to i32
  %fLength.i.i.i = getelementptr inbounds i8, ptr %rc.07.i, i64 20
  %7 = load i32, ptr %fLength.i.i.i, align 4
  %cond.i.i.i = select i1 %cmp.i.i.i.i, i32 %7, i32 %shr.i.i.i.i
  %8 = load i16, ptr %fUnion.i.i.i, align 8
  %cmp.i.i8.i.i = icmp slt i16 %8, 0
  %9 = ashr i16 %8, 5
  %shr.i.i9.i.i = sext i16 %9 to i32
  %10 = load i32, ptr %fLength.i.i, align 4
  %cond.i11.i.i = select i1 %cmp.i.i8.i.i, i32 %10, i32 %shr.i.i9.i.i
  %conv2.i1316.i.i = and i16 %8, 1
  %tobool7.not.i.i = icmp eq i16 %conv2.i1316.i.i, 0
  %cmp.i.i = icmp eq i32 %cond.i.i.i, %cond.i11.i.i
  %or.cond.i.i = and i1 %tobool7.not.i.i, %cmp.i.i
  br i1 %or.cond.i.i, label %_ZNK6icu_7513UnicodeStringeqERKS0_.exit.i, label %for.inc.i

_ZNK6icu_7513UnicodeStringeqERKS0_.exit.i:        ; preds = %if.else.i.i
  %call8.i.i = tail call noundef signext i8 @_ZNK6icu_7513UnicodeString8doEqualsERKS0_i(ptr noundef nonnull align 8 dereferenceable(64) %fKeyword.i, ptr noundef nonnull align 8 dereferenceable(64) %keyword, i32 noundef %cond.i.i.i)
  %tobool9.i.not.i = icmp eq i8 %call8.i.i, 0
  br i1 %tobool9.i.not.i, label %for.inc.i, label %return

for.inc.i:                                        ; preds = %_ZNK6icu_7513UnicodeStringeqERKS0_.exit.i, %if.else.i.i, %if.then.i.i
  %fNext.i = getelementptr inbounds i8, ptr %rc.07.i, i64 72
  %rc.0.i = load ptr, ptr %fNext.i, align 8
  %cmp.not.i = icmp eq ptr %rc.0.i, null
  br i1 %cmp.not.i, label %return, label %for.body.i, !llvm.loop !40

return:                                           ; preds = %for.inc.i, %_ZNK6icu_7513UnicodeStringeqERKS0_.exit.i, %if.then.i.i, %if.end, %invoke.cont
  %retval.0 = phi i8 [ 1, %invoke.cont ], [ 0, %if.end ], [ 0, %for.inc.i ], [ 1, %_ZNK6icu_7513UnicodeStringeqERKS0_.exit.i ], [ 1, %if.then.i.i ]
  ret i8 %retval.0
}